target datalayout = "e-m:e-p270:32:32-p271:32:32-p272:64:64-i64:64-i128:128-f80:128-n8:16:32:64-S128"
target triple = "x86_64-pc-linux-gnu"

%"class.pxrInternal_v0_24__pxrReserved__::TfEnum" = type <{ ptr, i32, [4 x i8] }>
%"class.std::__cxx11::basic_string" = type { %"struct.std::__cxx11::basic_string<char>::_Alloc_hider", i64, %union.anon }
%"struct.std::__cxx11::basic_string<char>::_Alloc_hider" = type { ptr }
%union.anon = type { i64, [8 x i8] }
%"class.pxrInternal_v0_24__pxrReserved__::TfDiagnosticBase" = type <{ %"class.pxrInternal_v0_24__pxrReserved__::TfCallContext", %"class.std::__cxx11::basic_string", %"class.pxrInternal_v0_24__pxrReserved__::TfEnum", %"class.std::__cxx11::basic_string", %"class.std::any", i64, i8, [7 x i8] }>
%"class.pxrInternal_v0_24__pxrReserved__::TfCallContext" = type <{ ptr, ptr, i64, ptr, i8, [7 x i8] }>
%"class.std::any" = type { ptr, %"union.std::any::_Storage" }
%"union.std::any::_Storage" = type { ptr }
%"class.std::type_info" = type { ptr, ptr }

@_ZTIN32pxrInternal_v0_24__pxrReserved__16TfDiagnosticTypeE = linkonce_odr constant { ptr, ptr } { ptr getelementptr inbounds (ptr, ptr @_ZTVN10__cxxabiv116__enum_type_infoE, i64 2), ptr @_ZTSN32pxrInternal_v0_24__pxrReserved__16TfDiagnosticTypeE }, comdat, align 8

; Function Attrs: mustprogress nounwind uwtable
define linkonce_odr noundef ptr @_ZNKSt9type_info4nameEv(ptr noundef nonnull align 8 dereferenceable(16) %0) #3 comdat align 2 {
  %2 = alloca ptr, align 8
  store ptr %0, ptr %2, align 8
  %3 = load ptr, ptr %2, align 8
  %4 = getelementptr inbounds nuw %"class.std::type_info", ptr %3, i32 0, i32 1
  %5 = load ptr, ptr %4, align 8
  %6 = getelementptr inbounds i8, ptr %5, i64 0
  %7 = load i8, ptr %6, align 1
  %8 = sext i8 %7 to i32
  %9 = icmp eq i32 %8, 42
  br i1 %9, label %10, label %14

10:                                               ; preds = %1
  %11 = getelementptr inbounds nuw %"class.std::type_info", ptr %3, i32 0, i32 1
  %12 = load ptr, ptr %11, align 8
  %13 = getelementptr inbounds i8, ptr %12, i64 1
  br label %17

14:                                               ; preds = %1
  %15 = getelementptr inbounds nuw %"class.std::type_info", ptr %3, i32 0, i32 1
  %16 = load ptr, ptr %15, align 8
  br label %17

17:                                               ; preds = %14, %10
  %18 = phi ptr [ %13, %10 ], [ %16, %14 ]
  ret ptr %18
}

; Function Attrs: mustprogress nounwind uwtable
define linkonce_odr noundef zeroext i1 @_ZNKSt9type_infoeqERKS_(ptr noundef nonnull align 8 dereferenceable(16) %0, ptr noundef nonnull align 8 dereferenceable(16) %1) #3 comdat align 2 {
  %3 = alloca i1, align 1
  %4 = alloca ptr, align 8
  %5 = alloca ptr, align 8
  store ptr %0, ptr %4, align 8
  store ptr %1, ptr %5, align 8
  %6 = load ptr, ptr %4, align 8
  %7 = getelementptr inbounds nuw %"class.std::type_info", ptr %6, i32 0, i32 1
  %8 = load ptr, ptr %7, align 8
  %9 = load ptr, ptr %5, align 8
  %10 = getelementptr inbounds nuw %"class.std::type_info", ptr %9, i32 0, i32 1
  %11 = load ptr, ptr %10, align 8
  %12 = icmp eq ptr %8, %11
  br i1 %12, label %13, label %14

13:                                               ; preds = %2
  store i1 true, ptr %3, align 1
  br label %30

14:                                               ; preds = %2
  %15 = getelementptr inbounds nuw %"class.std::type_info", ptr %6, i32 0, i32 1
  %16 = load ptr, ptr %15, align 8
  %17 = getelementptr inbounds i8, ptr %16, i64 0
  %18 = load i8, ptr %17, align 1
  %19 = sext i8 %18 to i32
  %20 = icmp ne i32 %19, 42
  br i1 %20, label %21, label %28

21:                                               ; preds = %14
  %22 = getelementptr inbounds nuw %"class.std::type_info", ptr %6, i32 0, i32 1
  %23 = load ptr, ptr %22, align 8
  %24 = load ptr, ptr %5, align 8
  %25 = call noundef ptr @_ZNKSt9type_info4nameEv(ptr noundef nonnull align 8 dereferenceable(16) %24) #7
  %26 = call i32 @strcmp(ptr noundef %23, ptr noundef %25) #7
  %27 = icmp eq i32 %26, 0
  br label %28

28:                                               ; preds = %21, %14
  %29 = phi i1 [ false, %14 ], [ %27, %21 ]
  store i1 %29, ptr %3, align 1
  br label %30

30:                                               ; preds = %28, %13
  %31 = load i1, ptr %3, align 1
  ret i1 %31
}

; Function Attrs: mustprogress nounwind uwtable
define linkonce_odr noundef zeroext i1 @_ZN32pxrInternal_v0_24__pxrReserved__17TfSafeTypeCompareERKSt9type_infoS2_(ptr noundef nonnull align 8 dereferenceable(16) %0, ptr noundef nonnull align 8 dereferenceable(16) %1) #3 comdat {
  %3 = alloca ptr, align 8
  %4 = alloca ptr, align 8
  store ptr %0, ptr %3, align 8
  store ptr %1, ptr %4, align 8
  %5 = load ptr, ptr %3, align 8
  %6 = load ptr, ptr %4, align 8
  %7 = call noundef zeroext i1 @_ZNKSt9type_infoeqERKS_(ptr noundef nonnull align 8 dereferenceable(16) %5, ptr noundef nonnull align 8 dereferenceable(16) %6) #7
  ret i1 %7
}

; Function Attrs: mustprogress uwtable
define linkonce_odr noundef zeroext i1 @_ZNK32pxrInternal_v0_24__pxrReserved__6TfEnum3IsAINS_16TfDiagnosticTypeEEEbv(ptr noundef nonnull align 8 dereferenceable(12) %0) #0 comdat align 2 {
  %2 = alloca ptr, align 8
  store ptr %0, ptr %2, align 8
  %3 = load ptr, ptr %2, align 8
  %4 = getelementptr inbounds nuw %"class.pxrInternal_v0_24__pxrReserved__::TfEnum", ptr %3, i32 0, i32 0
  %5 = load ptr, ptr %4, align 8
  %6 = call noundef zeroext i1 @_ZN32pxrInternal_v0_24__pxrReserved__17TfSafeTypeCompareERKSt9type_infoS2_(ptr noundef nonnull align 8 dereferenceable(16) %5, ptr noundef nonnull align 8 dereferenceable(16) @_ZTIN32pxrInternal_v0_24__pxrReserved__16TfDiagnosticTypeE)
  ret i1 %6
}

; Function Attrs: mustprogress uwtable
define linkonce_odr noundef zeroext i1 @_ZNK32pxrInternal_v0_24__pxrReserved__6TfEnumeqINS_16TfDiagnosticTypeEEENSt9enable_ifIXsr3std7is_enumIT_EE5valueEbE4typeES4_(ptr noundef nonnull align 8 dereferenceable(12) %0, i32 noundef %1) #0 comdat align 2 {
  %3 = alloca ptr, align 8
  %4 = alloca i32, align 4
  store ptr %0, ptr %3, align 8
  store i32 %1, ptr %4, align 4
  %5 = load ptr, ptr %3, align 8
  %6 = load i32, ptr %4, align 4
  %7 = getelementptr inbounds nuw %"class.pxrInternal_v0_24__pxrReserved__::TfEnum", ptr %5, i32 0, i32 1
  %8 = load i32, ptr %7, align 8
  %9 = icmp eq i32 %6, %8
  br i1 %9, label %10, label %12

10:                                               ; preds = %2
  %11 = call noundef zeroext i1 @_ZNK32pxrInternal_v0_24__pxrReserved__6TfEnum3IsAINS_16TfDiagnosticTypeEEEbv(ptr noundef nonnull align 8 dereferenceable(12) %5)
  br label %12

12:                                               ; preds = %10, %2
  %13 = phi i1 [ false, %2 ], [ %11, %10 ]
  ret i1 %13
}

; Function Attrs: mustprogress uwtable
define noundef zeroext i1 @_ZNK32pxrInternal_v0_24__pxrReserved__16TfDiagnosticBase7IsFatalEv(ptr noundef nonnull align 8 dereferenceable(145) %0) #0 align 2 {
  %2 = alloca ptr, align 8
  %3 = alloca %"class.pxrInternal_v0_24__pxrReserved__::TfEnum", align 8
  store ptr %0, ptr %2, align 8
  %4 = load ptr, ptr %2, align 8
  %5 = getelementptr inbounds nuw %"class.pxrInternal_v0_24__pxrReserved__::TfDiagnosticBase", ptr %4, i32 0, i32 2
  call void @llvm.memcpy.p0.p0.i64(ptr align 8 %3, ptr align 8 %5, i64 16, i1 false)
  %6 = call noundef zeroext i1 @_ZNK32pxrInternal_v0_24__pxrReserved__6TfEnumeqINS_16TfDiagnosticTypeEEENSt9enable_ifIXsr3std7is_enumIT_EE5valueEbE4typeES4_(ptr noundef nonnull align 8 dereferenceable(12) %3, i32 noundef 2)
  br i1 %6, label %11, label %7

7:                                                ; preds = %1
  %8 = call noundef zeroext i1 @_ZNK32pxrInternal_v0_24__pxrReserved__6TfEnumeqINS_16TfDiagnosticTypeEEENSt9enable_ifIXsr3std7is_enumIT_EE5valueEbE4typeES4_(ptr noundef nonnull align 8 dereferenceable(12) %3, i32 noundef 4)
  br i1 %8, label %11, label %9

9:                                                ; preds = %7
  %10 = call noundef zeroext i1 @_ZNK32pxrInternal_v0_24__pxrReserved__6TfEnumeqINS_16TfDiagnosticTypeEEENSt9enable_ifIXsr3std7is_enumIT_EE5valueEbE4typeES4_(ptr noundef nonnull align 8 dereferenceable(12) %3, i32 noundef 8)
  br label %11

11:                                               ; preds = %9, %7, %1
  %12 = phi i1 [ true, %7 ], [ true, %1 ], [ %10, %9 ]
  ret i1 %12
}