; Function Attrs: mustprogress nofree nounwind willreturn memory(read, inaccessiblemem: none) uwtable
define noundef zeroext i1 @_ZNK32pxrInternal_v0_24__pxrReserved__16TfDiagnosticBase7IsFatalEv(ptr nocapture noundef nonnull readonly align 8 dereferenceable(145) %0) local_unnamed_addr #5 align 2 {
  %2 = getelementptr inbounds nuw i8, ptr %0, i64 72
  %.sroa.0.0.copyload = load ptr, ptr %2, align 8
  %.sroa.4.0..sroa_idx = getelementptr inbounds i8, ptr %0, i64 80
  %.sroa.4.0.copyload = load i32, ptr %.sroa.4.0..sroa_idx, align 8
  switch i32 %.sroa.4.0.copyload, label %_ZNK32pxrInternal_v0_24__pxrReserved__6TfEnumeqINS_16TfDiagnosticTypeEEENSt9enable_ifIXsr3std7is_enumIT_EE5valueEbE4typeES4_.exit4 [
    i32 2, label %3
    i32 4, label %11
    i32 8, label %17
  ]

3:                                                ; preds = %1
  %4 = getelementptr inbounds nuw i8, ptr %.sroa.0.0.copyload, i64 8
  %5 = load ptr, ptr %4, align 8
  %6 = icmp eq ptr %5, @_ZTSN32pxrInternal_v0_24__pxrReserved__16TfDiagnosticTypeE
  br i1 %6, label %_ZNK32pxrInternal_v0_24__pxrReserved__6TfEnumeqINS_16TfDiagnosticTypeEEENSt9enable_ifIXsr3std7is_enumIT_EE5valueEbE4typeES4_.exit4, label %7

7:                                                ; preds = %3
  %8 = load i8, ptr %5, align 1
  %.not.i.i.i.i = icmp eq i8 %8, 42
  br i1 %.not.i.i.i.i, label %_ZNK32pxrInternal_v0_24__pxrReserved__6TfEnumeqINS_16TfDiagnosticTypeEEENSt9enable_ifIXsr3std7is_enumIT_EE5valueEbE4typeES4_.exit.thread, label %_ZNK32pxrInternal_v0_24__pxrReserved__6TfEnumeqINS_16TfDiagnosticTypeEEENSt9enable_ifIXsr3std7is_enumIT_EE5valueEbE4typeES4_.exit

_ZNK32pxrInternal_v0_24__pxrReserved__6TfEnumeqINS_16TfDiagnosticTypeEEENSt9enable_ifIXsr3std7is_enumIT_EE5valueEbE4typeES4_.exit: ; preds = %7
  %9 = tail call i32 @strcmp(ptr noundef nonnull dereferenceable(1) %5, ptr noundef nonnull dereferenceable(55) @_ZTSN32pxrInternal_v0_24__pxrReserved__16TfDiagnosticTypeE) #11
  %10 = icmp eq i32 %9, 0
  br i1 %10, label %_ZNK32pxrInternal_v0_24__pxrReserved__6TfEnumeqINS_16TfDiagnosticTypeEEENSt9enable_ifIXsr3std7is_enumIT_EE5valueEbE4typeES4_.exit4, label %_ZNK32pxrInternal_v0_24__pxrReserved__6TfEnumeqINS_16TfDiagnosticTypeEEENSt9enable_ifIXsr3std7is_enumIT_EE5valueEbE4typeES4_.exit.thread

_ZNK32pxrInternal_v0_24__pxrReserved__6TfEnumeqINS_16TfDiagnosticTypeEEENSt9enable_ifIXsr3std7is_enumIT_EE5valueEbE4typeES4_.exit.thread: ; preds = %7, %_ZNK32pxrInternal_v0_24__pxrReserved__6TfEnumeqINS_16TfDiagnosticTypeEEENSt9enable_ifIXsr3std7is_enumIT_EE5valueEbE4typeES4_.exit
  br label %_ZNK32pxrInternal_v0_24__pxrReserved__6TfEnumeqINS_16TfDiagnosticTypeEEENSt9enable_ifIXsr3std7is_enumIT_EE5valueEbE4typeES4_.exit4

11:                                               ; preds = %1
  %.phi.trans.insert = getelementptr inbounds nuw i8, ptr %.sroa.0.0.copyload, i64 8
  %.pre = load ptr, ptr %.phi.trans.insert, align 8
  %12 = icmp eq ptr %.pre, @_ZTSN32pxrInternal_v0_24__pxrReserved__16TfDiagnosticTypeE
  br i1 %12, label %_ZNK32pxrInternal_v0_24__pxrReserved__6TfEnumeqINS_16TfDiagnosticTypeEEENSt9enable_ifIXsr3std7is_enumIT_EE5valueEbE4typeES4_.exit4, label %13

13:                                               ; preds = %11
  %14 = load i8, ptr %.pre, align 1
  %.not.i.i.i.i1 = icmp eq i8 %14, 42
  br i1 %.not.i.i.i.i1, label %_ZNK32pxrInternal_v0_24__pxrReserved__6TfEnumeqINS_16TfDiagnosticTypeEEENSt9enable_ifIXsr3std7is_enumIT_EE5valueEbE4typeES4_.exit2.thread, label %_ZNK32pxrInternal_v0_24__pxrReserved__6TfEnumeqINS_16TfDiagnosticTypeEEENSt9enable_ifIXsr3std7is_enumIT_EE5valueEbE4typeES4_.exit2

_ZNK32pxrInternal_v0_24__pxrReserved__6TfEnumeqINS_16TfDiagnosticTypeEEENSt9enable_ifIXsr3std7is_enumIT_EE5valueEbE4typeES4_.exit2: ; preds = %13
  %15 = tail call i32 @strcmp(ptr noundef nonnull dereferenceable(1) %.pre, ptr noundef nonnull dereferenceable(55) @_ZTSN32pxrInternal_v0_24__pxrReserved__16TfDiagnosticTypeE) #11
  %16 = icmp eq i32 %15, 0
  br i1 %16, label %_ZNK32pxrInternal_v0_24__pxrReserved__6TfEnumeqINS_16TfDiagnosticTypeEEENSt9enable_ifIXsr3std7is_enumIT_EE5valueEbE4typeES4_.exit4, label %_ZNK32pxrInternal_v0_24__pxrReserved__6TfEnumeqINS_16TfDiagnosticTypeEEENSt9enable_ifIXsr3std7is_enumIT_EE5valueEbE4typeES4_.exit2.thread

_ZNK32pxrInternal_v0_24__pxrReserved__6TfEnumeqINS_16TfDiagnosticTypeEEENSt9enable_ifIXsr3std7is_enumIT_EE5valueEbE4typeES4_.exit2.thread: ; preds = %13, %_ZNK32pxrInternal_v0_24__pxrReserved__6TfEnumeqINS_16TfDiagnosticTypeEEENSt9enable_ifIXsr3std7is_enumIT_EE5valueEbE4typeES4_.exit2
  br label %_ZNK32pxrInternal_v0_24__pxrReserved__6TfEnumeqINS_16TfDiagnosticTypeEEENSt9enable_ifIXsr3std7is_enumIT_EE5valueEbE4typeES4_.exit4

17:                                               ; preds = %1
  %.phi.trans.insert12 = getelementptr inbounds nuw i8, ptr %.sroa.0.0.copyload, i64 8
  %.pre13 = load ptr, ptr %.phi.trans.insert12, align 8
  %18 = icmp eq ptr %.pre13, @_ZTSN32pxrInternal_v0_24__pxrReserved__16TfDiagnosticTypeE
  br i1 %18, label %_ZNK32pxrInternal_v0_24__pxrReserved__6TfEnumeqINS_16TfDiagnosticTypeEEENSt9enable_ifIXsr3std7is_enumIT_EE5valueEbE4typeES4_.exit4, label %19

19:                                               ; preds = %17
  %20 = load i8, ptr %.pre13, align 1
  %.not.i.i.i.i3 = icmp eq i8 %20, 42
  br i1 %.not.i.i.i.i3, label %_ZNK32pxrInternal_v0_24__pxrReserved__6TfEnumeqINS_16TfDiagnosticTypeEEENSt9enable_ifIXsr3std7is_enumIT_EE5valueEbE4typeES4_.exit4, label %21

21:                                               ; preds = %19
  %22 = tail call i32 @strcmp(ptr noundef nonnull dereferenceable(1) %.pre13, ptr noundef nonnull dereferenceable(55) @_ZTSN32pxrInternal_v0_24__pxrReserved__16TfDiagnosticTypeE) #11
  %23 = icmp eq i32 %22, 0
  br label %_ZNK32pxrInternal_v0_24__pxrReserved__6TfEnumeqINS_16TfDiagnosticTypeEEENSt9enable_ifIXsr3std7is_enumIT_EE5valueEbE4typeES4_.exit4

_ZNK32pxrInternal_v0_24__pxrReserved__6TfEnumeqINS_16TfDiagnosticTypeEEENSt9enable_ifIXsr3std7is_enumIT_EE5valueEbE4typeES4_.exit4: ; preds = %_ZNK32pxrInternal_v0_24__pxrReserved__6TfEnumeqINS_16TfDiagnosticTypeEEENSt9enable_ifIXsr3std7is_enumIT_EE5valueEbE4typeES4_.exit2.thread, %_ZNK32pxrInternal_v0_24__pxrReserved__6TfEnumeqINS_16TfDiagnosticTypeEEENSt9enable_ifIXsr3std7is_enumIT_EE5valueEbE4typeES4_.exit.thread, %1, %11, %3, %21, %19, %17, %_ZNK32pxrInternal_v0_24__pxrReserved__6TfEnumeqINS_16TfDiagnosticTypeEEENSt9enable_ifIXsr3std7is_enumIT_EE5valueEbE4typeES4_.exit2, %_ZNK32pxrInternal_v0_24__pxrReserved__6TfEnumeqINS_16TfDiagnosticTypeEEENSt9enable_ifIXsr3std7is_enumIT_EE5valueEbE4typeES4_.exit
  %24 = phi i1 [ true, %_ZNK32pxrInternal_v0_24__pxrReserved__6TfEnumeqINS_16TfDiagnosticTypeEEENSt9enable_ifIXsr3std7is_enumIT_EE5valueEbE4typeES4_.exit2 ], [ true, %_ZNK32pxrInternal_v0_24__pxrReserved__6TfEnumeqINS_16TfDiagnosticTypeEEENSt9enable_ifIXsr3std7is_enumIT_EE5valueEbE4typeES4_.exit ], [ false, %_ZNK32pxrInternal_v0_24__pxrReserved__6TfEnumeqINS_16TfDiagnosticTypeEEENSt9enable_ifIXsr3std7is_enumIT_EE5valueEbE4typeES4_.exit2.thread ], [ true, %17 ], [ false, %19 ], [ %23, %21 ], [ true, %3 ], [ true, %11 ], [ false, %_ZNK32pxrInternal_v0_24__pxrReserved__6TfEnumeqINS_16TfDiagnosticTypeEEENSt9enable_ifIXsr3std7is_enumIT_EE5valueEbE4typeES4_.exit.thread ], [ false, %1 ]
  ret i1 %24
}